; Function Attrs: nounwind uwtable
define internal i32 @request_frame(ptr noundef readonly captures(none) %0) #1 {
  %2 = load ptr, ptr %0, align 8, !tbaa !61
  %3 = getelementptr inbounds nuw i8, ptr %2, i64 72
  %4 = load ptr, ptr %3, align 8, !tbaa !4
  %5 = getelementptr inbounds nuw i8, ptr %2, i64 32
  %6 = load ptr, ptr %5, align 8, !tbaa !57
  %7 = load ptr, ptr %6, align 8, !tbaa !45
  %8 = tail call i32 @ff_request_frame(ptr noundef %7) #5
  %9 = icmp eq i32 %8, -541478725
  br i1 %9, label %10, label %18

10:                                               ; preds = %1
  %11 = getelementptr inbounds nuw i8, ptr %4, i64 32
  %12 = load i32, ptr %11, align 8, !tbaa !32
  %.not = icmp eq i32 %12, 0
  br i1 %.not, label %18, label %13

13:                                               ; preds = %10
  %14 = getelementptr inbounds nuw i8, ptr %4, i64 240
  %15 = load ptr, ptr %14, align 8, !tbaa !43
  %.not9 = icmp eq ptr %15, null
  br i1 %.not9, label %18, label %16

16:                                               ; preds = %13
  %17 = tail call fastcc i32 @end_last_frame(ptr noundef nonnull %2)
  br label %18

18:                                               ; preds = %16, %13, %10, %1
  %.0 = phi i32 [ %17, %16 ], [ -541478725, %13 ], [ -541478725, %10 ], [ %8, %1 ]
  ret i32 %.0
}